target datalayout = "e-m:e-p270:32:32-p271:32:32-p272:64:64-i64:64-i128:128-f80:128-n8:16:32:64-S128"
target triple = "x86_64-pc-linux-gnu"

%"class.cv::Rect_" = type { i32, i32, i32, i32 }
%"class.cv::Matx" = type { [4 x double] }
%"class.cv::Scalar_" = type { %"class.cv::Vec" }
%"class.cv::Vec" = type { %"class.cv::Matx" }
%"struct.cv::gapi::wip::draw::Rect" = type <{ %"class.cv::Rect_", %"class.cv::Scalar_", i32, i32, i32, [4 x i8] }>

; Function Attrs: mustprogress uwtable
define noundef nonnull align 8 dereferenceable(8) ptr @_ZN2cv4gapi4s11nrsERNS1_8IIStreamERNS_5Rect_IiEE(ptr noundef nonnull align 8 dereferenceable(8) %0, ptr noundef nonnull align 4 dereferenceable(16) %1) #4 {
  %3 = alloca ptr, align 8
  %4 = alloca ptr, align 8
  store ptr %0, ptr %3, align 8, !tbaa !16
  store ptr %1, ptr %4, align 8, !tbaa !35
  %5 = load ptr, ptr %3, align 8, !tbaa !16
  %6 = load ptr, ptr %4, align 8, !tbaa !35
  %7 = getelementptr inbounds nuw %"class.cv::Rect_", ptr %6, i32 0, i32 0
  %8 = load ptr, ptr %5, align 8, !tbaa !13
  %9 = getelementptr inbounds ptr, ptr %8, i64 8
  %10 = load ptr, ptr %9, align 8
  %11 = call noundef nonnull align 8 dereferenceable(8) ptr %10(ptr noundef nonnull align 8 dereferenceable(8) %5, ptr noundef nonnull align 4 dereferenceable(4) %7)
  %12 = load ptr, ptr %4, align 8, !tbaa !35
  %13 = getelementptr inbounds nuw %"class.cv::Rect_", ptr %12, i32 0, i32 1
  %14 = load ptr, ptr %11, align 8, !tbaa !13
  %15 = getelementptr inbounds ptr, ptr %14, i64 8
  %16 = load ptr, ptr %15, align 8
  %17 = call noundef nonnull align 8 dereferenceable(8) ptr %16(ptr noundef nonnull align 8 dereferenceable(8) %11, ptr noundef nonnull align 4 dereferenceable(4) %13)
  %18 = load ptr, ptr %4, align 8, !tbaa !35
  %19 = getelementptr inbounds nuw %"class.cv::Rect_", ptr %18, i32 0, i32 2
  %20 = load ptr, ptr %17, align 8, !tbaa !13
  %21 = getelementptr inbounds ptr, ptr %20, i64 8
  %22 = load ptr, ptr %21, align 8
  %23 = call noundef nonnull align 8 dereferenceable(8) ptr %22(ptr noundef nonnull align 8 dereferenceable(8) %17, ptr noundef nonnull align 4 dereferenceable(4) %19)
  %24 = load ptr, ptr %4, align 8, !tbaa !35
  %25 = getelementptr inbounds nuw %"class.cv::Rect_", ptr %24, i32 0, i32 3
  %26 = load ptr, ptr %23, align 8, !tbaa !13
  %27 = getelementptr inbounds ptr, ptr %26, i64 8
  %28 = load ptr, ptr %27, align 8
  %29 = call noundef nonnull align 8 dereferenceable(8) ptr %28(ptr noundef nonnull align 8 dereferenceable(8) %23, ptr noundef nonnull align 4 dereferenceable(4) %25)
  ret ptr %29
}

; Function Attrs: mustprogress uwtable
define noundef nonnull align 8 dereferenceable(8) ptr @_ZN2cv4gapi4s11nrsERNS1_8IIStreamERNS_7Scalar_IdEE(ptr noundef nonnull align 8 dereferenceable(8) %0, ptr noundef nonnull align 8 dereferenceable(32) %1) #4 {
  %3 = alloca ptr, align 8
  %4 = alloca ptr, align 8
  store ptr %0, ptr %3, align 8, !tbaa !16
  store ptr %1, ptr %4, align 8, !tbaa !42
  %5 = load ptr, ptr %3, align 8, !tbaa !16
  %6 = load ptr, ptr %4, align 8, !tbaa !42
  %7 = getelementptr inbounds nuw %"class.cv::Matx", ptr %6, i32 0, i32 0
  %8 = getelementptr inbounds [4 x double], ptr %7, i64 0, i64 0
  %9 = load ptr, ptr %5, align 8, !tbaa !13
  %10 = getelementptr inbounds ptr, ptr %9, i64 10
  %11 = load ptr, ptr %10, align 8
  %12 = call noundef nonnull align 8 dereferenceable(8) ptr %11(ptr noundef nonnull align 8 dereferenceable(8) %5, ptr noundef nonnull align 8 dereferenceable(8) %8)
  %13 = load ptr, ptr %4, align 8, !tbaa !42
  %14 = getelementptr inbounds nuw %"class.cv::Matx", ptr %13, i32 0, i32 0
  %15 = getelementptr inbounds [4 x double], ptr %14, i64 0, i64 1
  %16 = load ptr, ptr %12, align 8, !tbaa !13
  %17 = getelementptr inbounds ptr, ptr %16, i64 10
  %18 = load ptr, ptr %17, align 8
  %19 = call noundef nonnull align 8 dereferenceable(8) ptr %18(ptr noundef nonnull align 8 dereferenceable(8) %12, ptr noundef nonnull align 8 dereferenceable(8) %15)
  %20 = load ptr, ptr %4, align 8, !tbaa !42
  %21 = getelementptr inbounds nuw %"class.cv::Matx", ptr %20, i32 0, i32 0
  %22 = getelementptr inbounds [4 x double], ptr %21, i64 0, i64 2
  %23 = load ptr, ptr %19, align 8, !tbaa !13
  %24 = getelementptr inbounds ptr, ptr %23, i64 10
  %25 = load ptr, ptr %24, align 8
  %26 = call noundef nonnull align 8 dereferenceable(8) ptr %25(ptr noundef nonnull align 8 dereferenceable(8) %19, ptr noundef nonnull align 8 dereferenceable(8) %22)
  %27 = load ptr, ptr %4, align 8, !tbaa !42
  %28 = getelementptr inbounds nuw %"class.cv::Matx", ptr %27, i32 0, i32 0
  %29 = getelementptr inbounds [4 x double], ptr %28, i64 0, i64 3
  %30 = load ptr, ptr %26, align 8, !tbaa !13
  %31 = getelementptr inbounds ptr, ptr %30, i64 10
  %32 = load ptr, ptr %31, align 8
  %33 = call noundef nonnull align 8 dereferenceable(8) ptr %32(ptr noundef nonnull align 8 dereferenceable(8) %26, ptr noundef nonnull align 8 dereferenceable(8) %29)
  ret ptr %33
}

; Function Attrs: mustprogress uwtable
define noundef nonnull align 8 dereferenceable(8) ptr @_ZN2cv4gapi4s11nrsERNS1_8IIStreamERNS0_3wip4draw4RectE(ptr noundef nonnull align 8 dereferenceable(8) %0, ptr noundef nonnull align 8 dereferenceable(60) %1) #4 {
  %3 = alloca ptr, align 8
  %4 = alloca ptr, align 8
  store ptr %0, ptr %3, align 8, !tbaa !16
  store ptr %1, ptr %4, align 8, !tbaa !103
  %5 = load ptr, ptr %3, align 8, !tbaa !16
  %6 = load ptr, ptr %4, align 8, !tbaa !103
  %7 = getelementptr inbounds nuw %"struct.cv::gapi::wip::draw::Rect", ptr %6, i32 0, i32 1
  %8 = call noundef nonnull align 8 dereferenceable(8) ptr @_ZN2cv4gapi4s11nrsERNS1_8IIStreamERNS_7Scalar_IdEE(ptr noundef nonnull align 8 dereferenceable(8) %5, ptr noundef nonnull align 8 dereferenceable(32) %7)
  %9 = load ptr, ptr %4, align 8, !tbaa !103
  %10 = getelementptr inbounds nuw %"struct.cv::gapi::wip::draw::Rect", ptr %9, i32 0, i32 3
  %11 = load ptr, ptr %8, align 8, !tbaa !13
  %12 = getelementptr inbounds ptr, ptr %11, i64 8
  %13 = load ptr, ptr %12, align 8
  %14 = call noundef nonnull align 8 dereferenceable(8) ptr %13(ptr noundef nonnull align 8 dereferenceable(8) %8, ptr noundef nonnull align 4 dereferenceable(4) %10)
  %15 = load ptr, ptr %4, align 8, !tbaa !103
  %16 = getelementptr inbounds nuw %"struct.cv::gapi::wip::draw::Rect", ptr %15, i32 0, i32 0
  %17 = call noundef nonnull align 8 dereferenceable(8) ptr @_ZN2cv4gapi4s11nrsERNS1_8IIStreamERNS_5Rect_IiEE(ptr noundef nonnull align 8 dereferenceable(8) %14, ptr noundef nonnull align 4 dereferenceable(16) %16)
  %18 = load ptr, ptr %4, align 8, !tbaa !103
  %19 = getelementptr inbounds nuw %"struct.cv::gapi::wip::draw::Rect", ptr %18, i32 0, i32 4
  %20 = load ptr, ptr %17, align 8, !tbaa !13
  %21 = getelementptr inbounds ptr, ptr %20, i64 8
  %22 = load ptr, ptr %21, align 8
  %23 = call noundef nonnull align 8 dereferenceable(8) ptr %22(ptr noundef nonnull align 8 dereferenceable(8) %17, ptr noundef nonnull align 4 dereferenceable(4) %19)
  %24 = load ptr, ptr %4, align 8, !tbaa !103
  %25 = getelementptr inbounds nuw %"struct.cv::gapi::wip::draw::Rect", ptr %24, i32 0, i32 2
  %26 = load ptr, ptr %23, align 8, !tbaa !13
  %27 = getelementptr inbounds ptr, ptr %26, i64 8
  %28 = load ptr, ptr %27, align 8
  %29 = call noundef nonnull align 8 dereferenceable(8) ptr %28(ptr noundef nonnull align 8 dereferenceable(8) %23, ptr noundef nonnull align 4 dereferenceable(4) %25)
  ret ptr %29
}