; Function Attrs: mustprogress uwtable
define noundef nonnull align 8 dereferenceable(8) ptr @_ZN2cv4gapi4s11nrsERNS1_8IIStreamERNS0_3wip4draw4RectE(ptr noundef nonnull align 8 dereferenceable(8) %0, ptr noundef nonnull align 8 dereferenceable(60) %1) local_unnamed_addr #3 {
  %3 = getelementptr inbounds nuw i8, ptr %1, i64 16
  %4 = load ptr, ptr %0, align 8, !tbaa !8
  %5 = getelementptr inbounds nuw i8, ptr %4, i64 80
  %6 = load ptr, ptr %5, align 8
  %7 = tail call noundef nonnull align 8 dereferenceable(8) ptr %6(ptr noundef nonnull align 8 dereferenceable(8) %0, ptr noundef nonnull align 8 dereferenceable(32) %3)
  %8 = getelementptr inbounds nuw i8, ptr %1, i64 24
  %9 = load ptr, ptr %7, align 8, !tbaa !8
  %10 = getelementptr inbounds nuw i8, ptr %9, i64 80
  %11 = load ptr, ptr %10, align 8
  %12 = tail call noundef nonnull align 8 dereferenceable(8) ptr %11(ptr noundef nonnull align 8 dereferenceable(8) %7, ptr noundef nonnull align 8 dereferenceable(8) %8)
  %13 = getelementptr inbounds nuw i8, ptr %1, i64 32
  %14 = load ptr, ptr %12, align 8, !tbaa !8
  %15 = getelementptr inbounds nuw i8, ptr %14, i64 80
  %16 = load ptr, ptr %15, align 8
  %17 = tail call noundef nonnull align 8 dereferenceable(8) ptr %16(ptr noundef nonnull align 8 dereferenceable(8) %12, ptr noundef nonnull align 8 dereferenceable(8) %13)
  %18 = getelementptr inbounds nuw i8, ptr %1, i64 40
  %19 = load ptr, ptr %17, align 8, !tbaa !8
  %20 = getelementptr inbounds nuw i8, ptr %19, i64 80
  %21 = load ptr, ptr %20, align 8
  %22 = tail call noundef nonnull align 8 dereferenceable(8) ptr %21(ptr noundef nonnull align 8 dereferenceable(8) %17, ptr noundef nonnull align 8 dereferenceable(8) %18)
  %23 = getelementptr inbounds nuw i8, ptr %1, i64 52
  %24 = load ptr, ptr %22, align 8, !tbaa !8
  %25 = getelementptr inbounds nuw i8, ptr %24, i64 64
  %26 = load ptr, ptr %25, align 8
  %27 = tail call noundef nonnull align 8 dereferenceable(8) ptr %26(ptr noundef nonnull align 8 dereferenceable(8) %22, ptr noundef nonnull align 4 dereferenceable(4) %23)
  %28 = load ptr, ptr %27, align 8, !tbaa !8
  %29 = getelementptr inbounds nuw i8, ptr %28, i64 64
  %30 = load ptr, ptr %29, align 8
  %31 = tail call noundef nonnull align 8 dereferenceable(8) ptr %30(ptr noundef nonnull align 8 dereferenceable(8) %27, ptr noundef nonnull align 4 dereferenceable(16) %1)
  %32 = getelementptr inbounds nuw i8, ptr %1, i64 4
  %33 = load ptr, ptr %31, align 8, !tbaa !8
  %34 = getelementptr inbounds nuw i8, ptr %33, i64 64
  %35 = load ptr, ptr %34, align 8
  %36 = tail call noundef nonnull align 8 dereferenceable(8) ptr %35(ptr noundef nonnull align 8 dereferenceable(8) %31, ptr noundef nonnull align 4 dereferenceable(4) %32)
  %37 = getelementptr inbounds nuw i8, ptr %1, i64 8
  %38 = load ptr, ptr %36, align 8, !tbaa !8
  %39 = getelementptr inbounds nuw i8, ptr %38, i64 64
  %40 = load ptr, ptr %39, align 8
  %41 = tail call noundef nonnull align 8 dereferenceable(8) ptr %40(ptr noundef nonnull align 8 dereferenceable(8) %36, ptr noundef nonnull align 4 dereferenceable(4) %37)
  %42 = getelementptr inbounds nuw i8, ptr %1, i64 12
  %43 = load ptr, ptr %41, align 8, !tbaa !8
  %44 = getelementptr inbounds nuw i8, ptr %43, i64 64
  %45 = load ptr, ptr %44, align 8
  %46 = tail call noundef nonnull align 8 dereferenceable(8) ptr %45(ptr noundef nonnull align 8 dereferenceable(8) %41, ptr noundef nonnull align 4 dereferenceable(4) %42)
  %47 = getelementptr inbounds nuw i8, ptr %1, i64 56
  %48 = load ptr, ptr %46, align 8, !tbaa !8
  %49 = getelementptr inbounds nuw i8, ptr %48, i64 64
  %50 = load ptr, ptr %49, align 8
  %51 = tail call noundef nonnull align 8 dereferenceable(8) ptr %50(ptr noundef nonnull align 8 dereferenceable(8) %46, ptr noundef nonnull align 4 dereferenceable(4) %47)
  %52 = getelementptr inbounds nuw i8, ptr %1, i64 48
  %53 = load ptr, ptr %51, align 8, !tbaa !8
  %54 = getelementptr inbounds nuw i8, ptr %53, i64 64
  %55 = load ptr, ptr %54, align 8
  %56 = tail call noundef nonnull align 8 dereferenceable(8) ptr %55(ptr noundef nonnull align 8 dereferenceable(8) %51, ptr noundef nonnull align 4 dereferenceable(4) %52)
  ret ptr %56
}